target datalayout = "e-m:e-p270:32:32-p271:32:32-p272:64:64-i64:64-i128:128-f80:128-n8:16:32:64-S128"
target triple = "x86_64-pc-linux-gnu"

@.str.174 = private unnamed_addr constant [2 x i8] c"-\00", align 1
@.str.242 = private unnamed_addr constant [3 x i8] c"--\00", align 1
@.str.243 = private unnamed_addr constant [7 x i8] c"gtest_\00", align 1
@.str.414 = private unnamed_addr constant [2 x i8] c"/\00", align 1
@.str.415 = private unnamed_addr constant [16 x i8] c"gtest_internal_\00", align 1
@.str.416 = private unnamed_addr constant [7 x i8] c"gtest-\00", align 1

; Function Attrs: mustprogress nounwind uwtable
define hidden noundef zeroext i1 @_ZN7testing8internal10SkipPrefixEPKcPS2_(ptr noundef %0, ptr noundef %1) #6 {
  %3 = alloca i1, align 1
  %4 = alloca ptr, align 8
  %5 = alloca ptr, align 8
  %6 = alloca i64, align 8
  %7 = alloca i32, align 4
  store ptr %0, ptr %4, align 8
  store ptr %1, ptr %5, align 8
  call void @llvm.lifetime.start.p0(i64 8, ptr %6) #3
  %8 = load ptr, ptr %4, align 8
  %9 = call i64 @strlen(ptr noundef %8) #26
  store i64 %9, ptr %6, align 8
  %10 = load ptr, ptr %5, align 8
  %11 = load ptr, ptr %10, align 8
  %12 = load ptr, ptr %4, align 8
  %13 = load i64, ptr %6, align 8
  %14 = call i32 @strncmp(ptr noundef %11, ptr noundef %12, i64 noundef %13) #26
  %15 = icmp eq i32 %14, 0
  br i1 %15, label %16, label %21

16:                                               ; preds = %2
  %17 = load i64, ptr %6, align 8
  %18 = load ptr, ptr %5, align 8
  %19 = load ptr, ptr %18, align 8
  %20 = getelementptr inbounds nuw i8, ptr %19, i64 %17
  store ptr %20, ptr %18, align 8
  store i1 true, ptr %3, align 1
  store i32 1, ptr %7, align 4
  br label %22

21:                                               ; preds = %2
  store i1 false, ptr %3, align 1
  store i32 1, ptr %7, align 4
  br label %22

22:                                               ; preds = %21, %16
  call void @llvm.lifetime.end.p0(i64 8, ptr %6) #3
  %23 = load i1, ptr %3, align 1
  ret i1 %23
}

; Function Attrs: mustprogress nounwind uwtable
define internal noundef zeroext i1 @_ZN7testing8internalL23HasGoogleTestFlagPrefixEPKc(ptr noundef %0) #6 {
  %2 = alloca ptr, align 8
  store ptr %0, ptr %2, align 8
  %3 = call noundef zeroext i1 @_ZN7testing8internal10SkipPrefixEPKcPS2_(ptr noundef @.str.242, ptr noundef %2)
  br i1 %3, label %8, label %4

4:                                                ; preds = %1
  %5 = call noundef zeroext i1 @_ZN7testing8internal10SkipPrefixEPKcPS2_(ptr noundef @.str.174, ptr noundef %2)
  br i1 %5, label %8, label %6

6:                                                ; preds = %4
  %7 = call noundef zeroext i1 @_ZN7testing8internal10SkipPrefixEPKcPS2_(ptr noundef @.str.414, ptr noundef %2)
  br i1 %7, label %8, label %16

8:                                                ; preds = %6, %4, %1
  %9 = call noundef zeroext i1 @_ZN7testing8internal10SkipPrefixEPKcPS2_(ptr noundef @.str.415, ptr noundef %2)
  br i1 %9, label %16, label %10

10:                                               ; preds = %8
  %11 = call noundef zeroext i1 @_ZN7testing8internal10SkipPrefixEPKcPS2_(ptr noundef @.str.243, ptr noundef %2)
  br i1 %11, label %14, label %12

12:                                               ; preds = %10
  %13 = call noundef zeroext i1 @_ZN7testing8internal10SkipPrefixEPKcPS2_(ptr noundef @.str.416, ptr noundef %2)
  br label %14

14:                                               ; preds = %12, %10
  %15 = phi i1 [ true, %10 ], [ %13, %12 ]
  br label %16

16:                                               ; preds = %14, %8, %6
  %17 = phi i1 [ false, %8 ], [ false, %6 ], [ %15, %14 ]
  ret i1 %17
}