; Function Attrs: mustprogress nofree nounwind willreturn memory(argmem: read) uwtable
define internal fastcc noundef zeroext i1 @_ZN7testing8internalL23HasGoogleTestFlagPrefixEPKc(ptr noundef readonly captures(none) %0) unnamed_addr #21 {
sub_0:
  %1 = load i8, ptr %0, align 1
  switch i8 %1, label %_ZN7testing8internal10SkipPrefixEPKcPS2_.exit2 [
    i8 45, label %.tail
    i8 47, label %_ZN7testing8internal10SkipPrefixEPKcPS2_.exit2.thread
  ]

.tail:                                            ; preds = %sub_0
  %2 = getelementptr inbounds nuw i8, ptr %0, i64 1
  %3 = load i8, ptr %2, align 1
  %4 = icmp eq i8 %3, 45
  %. = select i1 %4, i64 2, i64 1
  br label %_ZN7testing8internal10SkipPrefixEPKcPS2_.exit2.thread

_ZN7testing8internal10SkipPrefixEPKcPS2_.exit2.thread: ; preds = %sub_0, %.tail
  %.sink = phi i64 [ %., %.tail ], [ 1, %sub_0 ]
  %5 = getelementptr inbounds nuw i8, ptr %0, i64 %.sink
  %6 = tail call i32 @strncmp(ptr noundef nonnull dereferenceable(1) %5, ptr noundef nonnull dereferenceable(16) @.str.415, i64 noundef 15) #57
  %7 = icmp eq i32 %6, 0
  br i1 %7, label %_ZN7testing8internal10SkipPrefixEPKcPS2_.exit2, label %_ZN7testing8internal10SkipPrefixEPKcPS2_.exit3

_ZN7testing8internal10SkipPrefixEPKcPS2_.exit3:   ; preds = %_ZN7testing8internal10SkipPrefixEPKcPS2_.exit2.thread
  %8 = tail call i32 @strncmp(ptr noundef nonnull dereferenceable(1) %5, ptr noundef nonnull dereferenceable(7) @.str.243, i64 noundef 6) #57
  %9 = icmp eq i32 %8, 0
  br i1 %9, label %_ZN7testing8internal10SkipPrefixEPKcPS2_.exit2, label %_ZN7testing8internal10SkipPrefixEPKcPS2_.exit4

_ZN7testing8internal10SkipPrefixEPKcPS2_.exit4:   ; preds = %_ZN7testing8internal10SkipPrefixEPKcPS2_.exit3
  %10 = tail call i32 @strncmp(ptr noundef nonnull dereferenceable(1) %5, ptr noundef nonnull dereferenceable(7) @.str.416, i64 noundef 6) #57
  %11 = icmp eq i32 %10, 0
  br label %_ZN7testing8internal10SkipPrefixEPKcPS2_.exit2

_ZN7testing8internal10SkipPrefixEPKcPS2_.exit2:   ; preds = %sub_0, %_ZN7testing8internal10SkipPrefixEPKcPS2_.exit4, %_ZN7testing8internal10SkipPrefixEPKcPS2_.exit3, %_ZN7testing8internal10SkipPrefixEPKcPS2_.exit2.thread
  %12 = phi i1 [ %11, %_ZN7testing8internal10SkipPrefixEPKcPS2_.exit4 ], [ false, %_ZN7testing8internal10SkipPrefixEPKcPS2_.exit2.thread ], [ true, %_ZN7testing8internal10SkipPrefixEPKcPS2_.exit3 ], [ false, %sub_0 ]
  ret i1 %12
}